target datalayout = "e-m:e-p270:32:32-p271:32:32-p272:64:64-i64:64-i128:128-f80:128-n8:16:32:64-S128"
target triple = "x86_64-pc-linux-gnu"

%struct.SANMVideoContext = type { ptr, %struct.GetByteContext, i32, i32, i32, i32, [256 x i32], [768 x i16], i64, i32, i32, i32, i32, i32, ptr, ptr, ptr, ptr, ptr, ptr, i32, i32, i32, i32, i32, ptr, i32, i32, i64, i64, [256 x i16], [4 x i16], [256 x [16 x i8]], [256 x [64 x i8]], [65536 x i8], [256 x i8], [2 x [256 x [16 x i8]]], i16 }
%struct.GetByteContext = type { ptr, ptr, ptr }

@.str.25 = private unnamed_addr constant [34 x i8] c"Insufficient data for raw frame.\0A\00", align 1

; Function Attrs: alwaysinline nounwind uwtable
define internal i32 @bytestream_get_le16(ptr noundef %0) #4 {
  %2 = alloca ptr, align 8
  store ptr %0, ptr %2, align 8, !tbaa !119
  %3 = load ptr, ptr %2, align 8, !tbaa !119
  %4 = load ptr, ptr %3, align 8, !tbaa !63
  %5 = getelementptr inbounds i8, ptr %4, i64 2
  store ptr %5, ptr %3, align 8, !tbaa !63
  %6 = load ptr, ptr %2, align 8, !tbaa !119
  %7 = load ptr, ptr %6, align 8, !tbaa !63
  %8 = getelementptr inbounds i8, ptr %7, i64 -2
  %9 = load i16, ptr %8, align 1, !tbaa !42
  %10 = zext i16 %9 to i32
  ret i32 %10
}

; Function Attrs: alwaysinline nounwind uwtable
define internal i32 @bytestream2_get_le16u(ptr noundef %0) #4 {
  %2 = alloca ptr, align 8
  store ptr %0, ptr %2, align 8, !tbaa !96
  %3 = load ptr, ptr %2, align 8, !tbaa !96
  %4 = getelementptr inbounds nuw %struct.GetByteContext, ptr %3, i32 0, i32 0
  %5 = call i32 @bytestream_get_le16(ptr noundef %4)
  ret i32 %5
}

; Function Attrs: alwaysinline nounwind uwtable
define internal i32 @bytestream2_get_bytes_left(ptr noundef %0) #4 {
  %2 = alloca ptr, align 8
  store ptr %0, ptr %2, align 8, !tbaa !96
  %3 = load ptr, ptr %2, align 8, !tbaa !96
  %4 = getelementptr inbounds nuw %struct.GetByteContext, ptr %3, i32 0, i32 1
  %5 = load ptr, ptr %4, align 8, !tbaa !100
  %6 = load ptr, ptr %2, align 8, !tbaa !96
  %7 = getelementptr inbounds nuw %struct.GetByteContext, ptr %6, i32 0, i32 0
  %8 = load ptr, ptr %7, align 8, !tbaa !98
  %9 = ptrtoint ptr %5 to i64
  %10 = ptrtoint ptr %8 to i64
  %11 = sub i64 %9, %10
  %12 = trunc i64 %11 to i32
  ret i32 %12
}

; Function Attrs: nounwind uwtable
define internal i32 @decode_0(ptr noundef %0) #1 {
  %2 = alloca i32, align 4
  %3 = alloca ptr, align 8
  %4 = alloca ptr, align 8
  %5 = alloca i32, align 4
  %6 = alloca i32, align 4
  %7 = alloca i32, align 4
  store ptr %0, ptr %3, align 8, !tbaa !29
  call void @llvm.lifetime.start.p0(i64 8, ptr %4) #10
  %8 = load ptr, ptr %3, align 8, !tbaa !29
  %9 = getelementptr inbounds nuw %struct.SANMVideoContext, ptr %8, i32 0, i32 16
  %10 = load ptr, ptr %9, align 8, !tbaa !85
  store ptr %10, ptr %4, align 8, !tbaa !105
  call void @llvm.lifetime.start.p0(i64 4, ptr %5) #10
  call void @llvm.lifetime.start.p0(i64 4, ptr %6) #10
  %11 = load ptr, ptr %3, align 8, !tbaa !29
  %12 = getelementptr inbounds nuw %struct.SANMVideoContext, ptr %11, i32 0, i32 1
  %13 = call i32 @bytestream2_get_bytes_left(ptr noundef %12)
  %14 = load ptr, ptr %3, align 8, !tbaa !29
  %15 = getelementptr inbounds nuw %struct.SANMVideoContext, ptr %14, i32 0, i32 9
  %16 = load i32, ptr %15, align 8, !tbaa !80
  %17 = load ptr, ptr %3, align 8, !tbaa !29
  %18 = getelementptr inbounds nuw %struct.SANMVideoContext, ptr %17, i32 0, i32 10
  %19 = load i32, ptr %18, align 4, !tbaa !81
  %20 = mul nsw i32 %16, %19
  %21 = mul nsw i32 %20, 2
  %22 = icmp slt i32 %13, %21
  br i1 %22, label %23, label %27

23:                                               ; preds = %1
  %24 = load ptr, ptr %3, align 8, !tbaa !29
  %25 = getelementptr inbounds nuw %struct.SANMVideoContext, ptr %24, i32 0, i32 0
  %26 = load ptr, ptr %25, align 8, !tbaa !31
  call void (ptr, i32, ptr, ...) @av_log(ptr noundef %26, i32 noundef 16, ptr noundef @.str.25)
  store i32 -1094995529, ptr %2, align 4
  store i32 1, ptr %7, align 4
  br label %63

27:                                               ; preds = %1
  store i32 0, ptr %6, align 4, !tbaa !44
  br label %28

28:                                               ; preds = %59, %27
  %29 = load i32, ptr %6, align 4, !tbaa !44
  %30 = load ptr, ptr %3, align 8, !tbaa !29
  %31 = getelementptr inbounds nuw %struct.SANMVideoContext, ptr %30, i32 0, i32 10
  %32 = load i32, ptr %31, align 4, !tbaa !81
  %33 = icmp slt i32 %29, %32
  br i1 %33, label %34, label %62

34:                                               ; preds = %28
  store i32 0, ptr %5, align 4, !tbaa !44
  br label %35

35:                                               ; preds = %50, %34
  %36 = load i32, ptr %5, align 4, !tbaa !44
  %37 = load ptr, ptr %3, align 8, !tbaa !29
  %38 = getelementptr inbounds nuw %struct.SANMVideoContext, ptr %37, i32 0, i32 9
  %39 = load i32, ptr %38, align 8, !tbaa !80
  %40 = icmp slt i32 %36, %39
  br i1 %40, label %41, label %53

41:                                               ; preds = %35
  %42 = load ptr, ptr %3, align 8, !tbaa !29
  %43 = getelementptr inbounds nuw %struct.SANMVideoContext, ptr %42, i32 0, i32 1
  %44 = call i32 @bytestream2_get_le16u(ptr noundef %43)
  %45 = trunc i32 %44 to i16
  %46 = load ptr, ptr %4, align 8, !tbaa !105
  %47 = load i32, ptr %5, align 4, !tbaa !44
  %48 = sext i32 %47 to i64
  %49 = getelementptr inbounds i16, ptr %46, i64 %48
  store i16 %45, ptr %49, align 2, !tbaa !101
  br label %50

50:                                               ; preds = %41
  %51 = load i32, ptr %5, align 4, !tbaa !44
  %52 = add nsw i32 %51, 1
  store i32 %52, ptr %5, align 4, !tbaa !44
  br label %35, !llvm.loop !209

53:                                               ; preds = %35
  %54 = load ptr, ptr %3, align 8, !tbaa !29
  %55 = getelementptr inbounds nuw %struct.SANMVideoContext, ptr %54, i32 0, i32 8
  %56 = load i64, ptr %55, align 8, !tbaa !84
  %57 = load ptr, ptr %4, align 8, !tbaa !105
  %58 = getelementptr inbounds i16, ptr %57, i64 %56
  store ptr %58, ptr %4, align 8, !tbaa !105
  br label %59

59:                                               ; preds = %53
  %60 = load i32, ptr %6, align 4, !tbaa !44
  %61 = add nsw i32 %60, 1
  store i32 %61, ptr %6, align 4, !tbaa !44
  br label %28, !llvm.loop !210

62:                                               ; preds = %28
  store i32 0, ptr %2, align 4
  store i32 1, ptr %7, align 4
  br label %63

63:                                               ; preds = %62, %23
  call void @llvm.lifetime.end.p0(i64 4, ptr %6) #10
  call void @llvm.lifetime.end.p0(i64 4, ptr %5) #10
  call void @llvm.lifetime.end.p0(i64 8, ptr %4) #10
  %64 = load i32, ptr %2, align 4
  ret i32 %64
}