; Function Attrs: nounwind uwtable
define internal range(i32 -1094995529, 1) i32 @decode_0(ptr noundef captures(none) %0) #1 {
  %2 = getelementptr inbounds nuw i8, ptr %0, i64 2656
  %3 = load ptr, ptr %2, align 8, !tbaa !84
  %4 = getelementptr inbounds nuw i8, ptr %0, i64 8
  %5 = getelementptr inbounds nuw i8, ptr %0, i64 16
  %6 = load ptr, ptr %5, align 8, !tbaa !58
  %7 = load ptr, ptr %4, align 8, !tbaa !56
  %8 = ptrtoint ptr %6 to i64
  %9 = ptrtoint ptr %7 to i64
  %10 = sub i64 %8, %9
  %11 = trunc i64 %10 to i32
  %12 = getelementptr inbounds nuw i8, ptr %0, i64 2616
  %13 = load i32, ptr %12, align 8, !tbaa !38
  %14 = getelementptr inbounds nuw i8, ptr %0, i64 2620
  %15 = load i32, ptr %14, align 4, !tbaa !39
  %16 = shl i32 %13, 1
  %17 = mul i32 %16, %15
  %18 = icmp sgt i32 %17, %11
  br i1 %18, label %30, label %.preheader19

.preheader19:                                     ; preds = %1
  %19 = icmp sgt i32 %15, 0
  br i1 %19, label %.preheader.lr.ph, label %.loopexit

.preheader.lr.ph:                                 ; preds = %.preheader19
  %20 = icmp sgt i32 %13, 0
  %21 = getelementptr inbounds nuw i8, ptr %0, i64 2608
  %22 = load i64, ptr %21, align 8, !tbaa !44
  br i1 %20, label %.preheader.lr.ph.split.us, label %.loopexit

.preheader.lr.ph.split.us:                        ; preds = %.preheader.lr.ph
  %wide.trip.count = zext nneg i32 %13 to i64
  br label %.preheader.us

.preheader.us:                                    ; preds = %._crit_edge.us, %.preheader.lr.ph.split.us
  %.promoted.us23 = phi ptr [ %7, %.preheader.lr.ph.split.us ], [ %25, %._crit_edge.us ]
  %.022.us = phi i32 [ 0, %.preheader.lr.ph.split.us ], [ %29, %._crit_edge.us ]
  %.01721.us = phi ptr [ %3, %.preheader.lr.ph.split.us ], [ %28, %._crit_edge.us ]
  br label %23

23:                                               ; preds = %.preheader.us, %23
  %indvars.iv = phi i64 [ 0, %.preheader.us ], [ %indvars.iv.next, %23 ]
  %24 = phi ptr [ %.promoted.us23, %.preheader.us ], [ %25, %23 ]
  %25 = getelementptr inbounds nuw i8, ptr %24, i64 2
  store ptr %25, ptr %4, align 8, !tbaa !60
  %26 = load i16, ptr %24, align 1, !tbaa !46
  %27 = getelementptr inbounds nuw i16, ptr %.01721.us, i64 %indvars.iv
  store i16 %26, ptr %27, align 2, !tbaa !65
  %indvars.iv.next = add nuw nsw i64 %indvars.iv, 1
  %exitcond.not = icmp eq i64 %indvars.iv.next, %wide.trip.count
  br i1 %exitcond.not, label %._crit_edge.us, label %23, !llvm.loop !182

._crit_edge.us:                                   ; preds = %23
  %28 = getelementptr inbounds i16, ptr %.01721.us, i64 %22
  %29 = add nuw nsw i32 %.022.us, 1
  %exitcond26.not = icmp eq i32 %29, %15
  br i1 %exitcond26.not, label %.loopexit, label %.preheader.us, !llvm.loop !183

30:                                               ; preds = %1
  %31 = load ptr, ptr %0, align 8, !tbaa !27
  tail call void (ptr, i32, ptr, ...) @av_log(ptr noundef %31, i32 noundef 16, ptr noundef nonnull @.str.25) #12
  br label %.loopexit

.loopexit:                                        ; preds = %._crit_edge.us, %.preheader.lr.ph, %.preheader19, %30
  %.018 = phi i32 [ -1094995529, %30 ], [ 0, %.preheader19 ], [ 0, %.preheader.lr.ph ], [ 0, %._crit_edge.us ]
  ret i32 %.018
}